; Function Attrs: nounwind uwtable
define dso_local noundef range(i64 -2147483648, 2147483648) i64 @be_lo_truncate(ptr noundef readonly captures(none) %0) local_unnamed_addr #0 {
  %2 = getelementptr inbounds nuw i8, ptr %0, i64 32
  %3 = load i64, ptr %2, align 8
  %4 = trunc i64 %3 to i32
  %5 = getelementptr inbounds nuw i8, ptr %0, i64 48
  %6 = load i64, ptr %5, align 8
  tail call void @PreventCommandIfReadOnly(ptr noundef nonnull @.str.16) #10
  %sext = shl i64 %6, 32
  %7 = ashr exact i64 %sext, 32
  tail call fastcc void @lo_truncate_internal(i32 noundef %4, i64 noundef %7)
  ret i64 0
}